
overflow_interrupt_led_blink.elf:     file format elf32-avr

Sections:
Idx Name          Size      VMA       LMA       File off  Algn
  0 .data         00000000  00800100  00800100  00000190  2**0
                  CONTENTS, ALLOC, LOAD, DATA
  1 .text         0000011c  00000000  00000000  00000074  2**1
                  CONTENTS, ALLOC, LOAD, READONLY, CODE
  2 .bss          00000004  00800100  00800100  00000190  2**0
                  ALLOC
  3 .comment      00000030  00000000  00000000  00000190  2**0
                  CONTENTS, READONLY
  4 .note.gnu.avr.deviceinfo 00000040  00000000  00000000  000001c0  2**2
                  CONTENTS, READONLY
  5 .debug_aranges 00000028  00000000  00000000  00000200  2**0
                  CONTENTS, READONLY, DEBUGGING
  6 .debug_info   000006b6  00000000  00000000  00000228  2**0
                  CONTENTS, READONLY, DEBUGGING
  7 .debug_abbrev 00000621  00000000  00000000  000008de  2**0
                  CONTENTS, READONLY, DEBUGGING
  8 .debug_line   00000236  00000000  00000000  00000eff  2**0
                  CONTENTS, READONLY, DEBUGGING
  9 .debug_frame  00000054  00000000  00000000  00001138  2**2
                  CONTENTS, READONLY, DEBUGGING
 10 .debug_str    0000038b  00000000  00000000  0000118c  2**0
                  CONTENTS, READONLY, DEBUGGING
 11 .debug_loc    00000063  00000000  00000000  00001517  2**0
                  CONTENTS, READONLY, DEBUGGING
 12 .debug_ranges 00000018  00000000  00000000  0000157a  2**0
                  CONTENTS, READONLY, DEBUGGING

Disassembly of section .text:

00000000 <__vectors>:
   0:	0c 94 34 00 	jmp	0x68	; 0x68 <__ctors_end>
   4:	0c 94 46 00 	jmp	0x8c	; 0x8c <__bad_interrupt>
   8:	0c 94 46 00 	jmp	0x8c	; 0x8c <__bad_interrupt>
   c:	0c 94 46 00 	jmp	0x8c	; 0x8c <__bad_interrupt>
  10:	0c 94 46 00 	jmp	0x8c	; 0x8c <__bad_interrupt>
  14:	0c 94 46 00 	jmp	0x8c	; 0x8c <__bad_interrupt>
  18:	0c 94 46 00 	jmp	0x8c	; 0x8c <__bad_interrupt>
  1c:	0c 94 46 00 	jmp	0x8c	; 0x8c <__bad_interrupt>
  20:	0c 94 46 00 	jmp	0x8c	; 0x8c <__bad_interrupt>
  24:	0c 94 46 00 	jmp	0x8c	; 0x8c <__bad_interrupt>
  28:	0c 94 46 00 	jmp	0x8c	; 0x8c <__bad_interrupt>
  2c:	0c 94 46 00 	jmp	0x8c	; 0x8c <__bad_interrupt>
  30:	0c 94 46 00 	jmp	0x8c	; 0x8c <__bad_interrupt>
  34:	0c 94 46 00 	jmp	0x8c	; 0x8c <__bad_interrupt>
  38:	0c 94 46 00 	jmp	0x8c	; 0x8c <__bad_interrupt>
  3c:	0c 94 46 00 	jmp	0x8c	; 0x8c <__bad_interrupt>
  40:	0c 94 48 00 	jmp	0x90	; 0x90 <__vector_16>
  44:	0c 94 46 00 	jmp	0x8c	; 0x8c <__bad_interrupt>
  48:	0c 94 46 00 	jmp	0x8c	; 0x8c <__bad_interrupt>
  4c:	0c 94 46 00 	jmp	0x8c	; 0x8c <__bad_interrupt>
  50:	0c 94 46 00 	jmp	0x8c	; 0x8c <__bad_interrupt>
  54:	0c 94 46 00 	jmp	0x8c	; 0x8c <__bad_interrupt>
  58:	0c 94 46 00 	jmp	0x8c	; 0x8c <__bad_interrupt>
  5c:	0c 94 46 00 	jmp	0x8c	; 0x8c <__bad_interrupt>
  60:	0c 94 46 00 	jmp	0x8c	; 0x8c <__bad_interrupt>
  64:	0c 94 46 00 	jmp	0x8c	; 0x8c <__bad_interrupt>

00000068 <__ctors_end>:
  68:	11 24       	eor	r1, r1
  6a:	1f be       	out	0x3f, r1	; 63
  6c:	cf ef       	ldi	r28, 0xFF	; 255
  6e:	d8 e0       	ldi	r29, 0x08	; 8
  70:	de bf       	out	0x3e, r29	; 62
  72:	cd bf       	out	0x3d, r28	; 61

00000074 <__do_clear_bss>:
  74:	21 e0       	ldi	r18, 0x01	; 1
  76:	a0 e0       	ldi	r26, 0x00	; 0
  78:	b1 e0       	ldi	r27, 0x01	; 1
  7a:	01 c0       	rjmp	.+2      	; 0x7e <.do_clear_bss_start>

0000007c <.do_clear_bss_loop>:
  7c:	1d 92       	st	X+, r1

0000007e <.do_clear_bss_start>:
  7e:	a4 30       	cpi	r26, 0x04	; 4
  80:	b2 07       	cpc	r27, r18
  82:	e1 f7       	brne	.-8      	; 0x7c <.do_clear_bss_loop>
  84:	0e 94 7f 00 	call	0xfe	; 0xfe <main>
  88:	0c 94 8c 00 	jmp	0x118	; 0x118 <_exit>

0000008c <__bad_interrupt>:
  8c:	0c 94 00 00 	jmp	0	; 0x0 <__vectors>

00000090 <__vector_16>:
#define F_CPU 16000000L

int count = 0;
int state = 0;

ISR(TIMER0_OVF_vect) {
  90:	1f 92       	push	r1
  92:	0f 92       	push	r0
  94:	0f b6       	in	r0, 0x3f	; 63
  96:	0f 92       	push	r0
  98:	11 24       	eor	r1, r1
  9a:	2f 93       	push	r18
  9c:	3f 93       	push	r19
  9e:	8f 93       	push	r24
  a0:	9f 93       	push	r25
	count++;
  a2:	80 91 02 01 	lds	r24, 0x0102	; 0x800102 <count>
  a6:	90 91 03 01 	lds	r25, 0x0103	; 0x800103 <count+0x1>
  aa:	01 96       	adiw	r24, 0x01	; 1
	if(count == 32) {
  ac:	80 32       	cpi	r24, 0x20	; 32
  ae:	91 05       	cpc	r25, r1
  b0:	29 f0       	breq	.+10     	; 0xbc <__vector_16+0x2c>

int count = 0;
int state = 0;

ISR(TIMER0_OVF_vect) {
	count++;
  b2:	90 93 03 01 	sts	0x0103, r25	; 0x800103 <count+0x1>
  b6:	80 93 02 01 	sts	0x0102, r24	; 0x800102 <count>
  ba:	18 c0       	rjmp	.+48     	; 0xec <__vector_16+0x5c>
	if(count == 32) {
		count = 0;
  bc:	10 92 03 01 	sts	0x0103, r1	; 0x800103 <count+0x1>
  c0:	10 92 02 01 	sts	0x0102, r1	; 0x800102 <count>
		state = !state;
  c4:	80 91 00 01 	lds	r24, 0x0100	; 0x800100 <_edata>
  c8:	90 91 01 01 	lds	r25, 0x0101	; 0x800101 <_edata+0x1>
  cc:	21 e0       	ldi	r18, 0x01	; 1
  ce:	30 e0       	ldi	r19, 0x00	; 0
  d0:	00 97       	sbiw	r24, 0x00	; 0
  d2:	11 f0       	breq	.+4      	; 0xd8 <__vector_16+0x48>
  d4:	20 e0       	ldi	r18, 0x00	; 0
  d6:	30 e0       	ldi	r19, 0x00	; 0
  d8:	30 93 01 01 	sts	0x0101, r19	; 0x800101 <_edata+0x1>
  dc:	20 93 00 01 	sts	0x0100, r18	; 0x800100 <_edata>
		if(state) PORTD = 0x00;
  e0:	89 2b       	or	r24, r25
  e2:	11 f4       	brne	.+4      	; 0xe8 <__vector_16+0x58>
  e4:	1b b8       	out	0x0b, r1	; 11
  e6:	02 c0       	rjmp	.+4      	; 0xec <__vector_16+0x5c>
		else PORTD = 0xFF;
  e8:	8f ef       	ldi	r24, 0xFF	; 255
  ea:	8b b9       	out	0x0b, r24	; 11
	}
}
  ec:	9f 91       	pop	r25
  ee:	8f 91       	pop	r24
  f0:	3f 91       	pop	r19
  f2:	2f 91       	pop	r18
  f4:	0f 90       	pop	r0
  f6:	0f be       	out	0x3f, r0	; 63
  f8:	0f 90       	pop	r0
  fa:	1f 90       	pop	r1
  fc:	18 95       	reti

000000fe <main>:

int main(void) {
	DDRD = 0x20;
  fe:	80 e2       	ldi	r24, 0x20	; 32
 100:	8a b9       	out	0x0a, r24	; 10
	PORTD = 0x20;
 102:	8b b9       	out	0x0b, r24	; 11
	
	TCCR0B |= (1 << CS02) | (1 << CS00);
 104:	85 b5       	in	r24, 0x25	; 37
 106:	85 60       	ori	r24, 0x05	; 5
 108:	85 bd       	out	0x25, r24	; 37
	
	TIMSK0 |= (1 << TOIE0);
 10a:	ee e6       	ldi	r30, 0x6E	; 110
 10c:	f0 e0       	ldi	r31, 0x00	; 0
 10e:	80 81       	ld	r24, Z
 110:	81 60       	ori	r24, 0x01	; 1
 112:	80 83       	st	Z, r24
	sei();
 114:	78 94       	sei
 116:	ff cf       	rjmp	.-2      	; 0x116 <main+0x18>

00000118 <_exit>:
 118:	f8 94       	cli

0000011a <__stop_program>:
 11a:	ff cf       	rjmp	.-2      	; 0x11a <__stop_program>
